(lp0
(dp1
Vdomain
p2
V.nike.com
p3
sVname
p4
Vs_vi
p5
sVexpires
p6
VWed, 15 Feb 2017 19:49:33 GMT
p7
sVvalue
p8
V[CS]v1|2A7124E505010DCF-60000108C00003C9[CE]
p9
sVexpiry
p10
I1487188173
sVpath
p11
V/
p12
sVhttponly
p13
I00
sVsecure
p14
I00
sa(dp15
Vdomain
p16
V.nike.com
p17
sVname
p18
VRES_SESSIONID
p19
sVexpires
p20
VMon, 16 Feb 2015 20:19:33 GMT
p21
sVvalue
p22
V251483495580032
p23
sVexpiry
p24
I1424117973
sVpath
p25
g12
sVhttponly
p26
I00
sVsecure
p27
I00
sa(dp28
Vdomain
p29
V.nike.com
p30
sVname
p31
VResonanceSegment
p32
sVexpires
p33
VFri, 17 Apr 2015 19:49:33 GMT
p34
sVvalue
p35
V1
p36
sVexpiry
p37
I1429300173
sVpath
p38
g12
sVhttponly
p39
I00
sVsecure
p40
I00
sa(dp41
Vdomain
p42
V.nike.com
p43
sVname
p44
Vs_sess
p45
sVexpires
p46
VFri, 17 Apr 2015 19:49:33 GMT
p47
sVvalue
p48
V%20s_cc%3Dtrue%3B%20c51%3Dhorizontal%3B%20v41%3Dbrowse%3B%20s_sq%3D%3B
p49
sVexpiry
p50
I1429300173
sVpath
p51
g12
sVhttponly
p52
I00
sVsecure
p53
I00
sa(dp54
Vdomain
p55
V.nike.com
p56
sVname
p57
Vs_pers
p58
sVexpires
p59
VThu, 16 Feb 2017 19:49:33 GMT
p60
sVvalue
p61
V%20s_fid%3D3F1DD744DBB04274-2BE4A937B50E2827%7C1487274573779%3B%20c5%3Dnikecom%253Ecart%253Eview%7C1424117973783%3B%20c6%3Dcart%7C1424117973785%3B
p62
sVexpiry
p63
I1487274573
sVpath
p64
g12
sVhttponly
p65
I00
sVsecure
p66
I00
sa(dp67
Vdomain
p68
V.nike.com
p69
sVname
p70
VRT
p71
sVexpires
p72
VMon, 23 Feb 2015 19:49:33 GMT
p73
sVvalue
p74
Vsl=2&ss=1424116170206&tt=0&obo=2&bcn=%2F%2F36ebc202.mpstat.us%2F&dm=nike.com&si=b08187b0-891d-47b8-a771-933ca70f8063
p75
sVexpiry
p76
I1424720973
sVpath
p77
g12
sVhttponly
p78
I00
sVsecure
p79
I00
sa(dp80
Vdomain
p81
V.nike.com
p82
sVname
p83
VAKNIKE
p84
sVexpires
p85
VMon, 16 Mar 2015 19:49:32 GMT
p86
sVvalue
p87
V32VXBI9_uQhMy2A2k_5oEcbTbJd1bcwTrCMrF5NPWJt2p4RD16ISkcg
p88
sVexpiry
p89
I1426535372
sVpath
p90
g12
sVhttponly
p91
I00
sVsecure
p92
I00
sa(dp93
Vdomain
p94
V.nike.com
p95
sVname
p96
Vutag_main
p97
sVexpires
p98
VThu, 31 Dec 2099 00:00:00 GMT
p99
sVvalue
p100
V_st:1424117973418$ses_id:1424116937361%3Bexp-session
p101
sVexpiry
p102
L4102358400L
sVpath
p103
g12
sVhttponly
p104
I00
sVsecure
p105
I00
sa(dp106
Vdomain
p107
V.nike.com
p108
sVname
p109
VCART_SUMMARY
p110
sVexpires
p111
VThu, 31 Dec 2099 00:00:00 GMT
p112
sVvalue
p113
V%7B%22profileId%22+%3A%2212741736537%22%2C%22userType%22+%3A%22DEFAULT_USER%22%2C%22securityStatus%22+%3A%220%22%2C%22cartCount%22+%3A1%7D
p114
sVexpiry
p115
L4102358400L
sVpath
p116
g12
sVhttponly
p117
I00
sVsecure
p118
I00
sa(dp119
Vdomain
p120
V.nike.com
p121
sVname
p122
VNIKE_CCR
p123
sVexpires
p124
VThu, 31 Dec 2099 00:00:00 GMT
p125
sVvalue
p126
V11|US|US|US|T|null|2|en_US|K|F
p127
sVexpiry
p128
L4102358400L
sVpath
p129
g12
sVhttponly
p130
I00
sVsecure
p131
I00
sa(dp132
Vdomain
p133
V.nike.com
p134
sVname
p135
VCONSUMERCHOICE_SESSION
p136
sVexpires
p137
VThu, 31 Dec 2099 00:00:00 GMT
p138
sVvalue
p139
Vt
p140
sVexpiry
p141
L4102358400L
sVpath
p142
g12
sVhttponly
p143
I00
sVsecure
p144
I00
sa(dp145
Vdomain
p146
V.nike.com
p147
sVname
p148
VCONSUMERCHOICE
p149
sVexpires
p150
VTue, 16 Feb 2016 19:49:31 GMT
p151
sVvalue
p152
VUS/en_US
p153
sVexpiry
p154
I1455652171
sVpath
p155
g12
sVhttponly
p156
I00
sVsecure
p157
I00
sa(dp158
Vdomain
p159
V.nike.com
p160
sVname
p161
VNIKE_COMMERCE_COUNTRY
p162
sVexpires
p163
VTue, 16 Feb 2016 19:49:31 GMT
p164
sVvalue
p165
VUS
p166
sVexpiry
p167
I1455652171
sVpath
p168
g12
sVhttponly
p169
I00
sVsecure
p170
I00
sa(dp171
Vdomain
p172
V.nike.com
p173
sVname
p174
VNIKE_COMMERCE_LANG_LOCALE
p175
sVexpires
p176
VTue, 16 Feb 2016 19:49:31 GMT
p177
sVvalue
p178
Ven_US
p179
sVexpiry
p180
I1455652171
sVpath
p181
g12
sVhttponly
p182
I00
sVsecure
p183
I00
sa(dp184
Vdomain
p185
V.nike.com
p186
sVname
p187
VUSID
p188
sVexpires
p189
VTue, 16 Feb 2016 19:49:31 GMT
p190
sVvalue
p191
V462F44F77721DF6E3E011B9DDFB13078.sin-116-app-us-0
p192
sVexpiry
p193
I1455652171
sVpath
p194
g12
sVhttponly
p195
I00
sVsecure
p196
I00
sa(dp197
Vdomain
p198
Vsecure-store.nike.com
p199
sVname
p200
VAKSB
p201
sVexpires
p202
VTue, 16 Feb 2016 19:49:31 GMT
p203
sVvalue
p204
Vs=1424116172328&r=https%3A//secure-store.nike.com/common/content/endpoint.html%23xdm_e%3Dhttp%253A%252F%252Fstore.nike.com%26xdm_c%3Ddefault2049%26xdm_p%3D1
p205
sVexpiry
p206
I1455652171
sVpath
p207
g12
sVhttponly
p208
I00
sVsecure
p209
I00
sa(dp210
Vdomain
p211
V.nike.com
p212
sVname
p213
VRES_TRACKINGID
p214
sVexpires
p215
VSat, 15 Feb 2025 19:49:31 GMT
p216
sVvalue
p217
V12242496013641
p218
sVexpiry
p219
I1739648971
sVpath
p220
g12
sVhttponly
p221
I00
sVsecure
p222
I00
sa(dp223
Vdomain
p224
V.nike.com
p225
sVname
p226
Vmp_nike_mixpanel
p227
sVexpires
p228
VTue, 16 Feb 2016 19:49:31 GMT
p229
sVvalue
p230
V%7B%22distinct_id%22%3A%20%2214b93f0419f929-0a374a718-4d7e5f32-1fa400-14b93f041a0c85%22%7D
p231
sVexpiry
p232
I1455652171
sVpath
p233
g12
sVhttponly
p234
I00
sVsecure
p235
I00
sa(dp236
Vdomain
p237
V.nike.com
p238
sVname
p239
Vpr_data
p240
sVexpires
p241
VTue, 16 Feb 2016 19:49:31 GMT
p242
sVvalue
p243
V0
p244
sVexpiry
p245
I1455652171
sVpath
p246
g12
sVhttponly
p247
I00
sVsecure
p248
I00
sa(dp249
Vdomain
p250
V.nike.com
p251
sVname
p252
Vdreams_session
p253
sVexpires
p254
VTue, 16 Feb 2016 19:49:31 GMT
p255
sVvalue
p256
Vcatching-dreams
p257
sVexpiry
p258
I1455652171
sVpath
p259
g12
sVhttponly
p260
I00
sVsecure
p261
I00
sa(dp262
Vdomain
p263
V.nike.com
p264
sVname
p265
VguidU
p266
sVexpires
p267
VSun, 12 Nov 2017 19:49:30 GMT
p268
sVvalue
p269
Vd01bd315-23f9-41dd-ba20-ad5be96a5167
p270
sVexpiry
p271
I1510516170
sVpath
p272
g12
sVhttponly
p273
I00
sVsecure
p274
I00
sa(dp275
Vdomain
p276
V.nike.com
p277
sVname
p278
VguidS
p279
sVexpires
p280
VSun, 12 Nov 2017 19:49:30 GMT
p281
sVvalue
p282
V9c4f77c3-fe00-421f-d6aa-6bf82e0982fe
p283
sVexpiry
p284
I1510516170
sVpath
p285
g12
sVhttponly
p286
I00
sVsecure
p287
I00
sa(dp288
Vdomain
p289
V.nike.com
p290
sVname
p291
Vnike_locale
p292
sVexpires
p293
VSun, 12 Nov 2017 19:49:30 GMT
p294
sVvalue
p295
Vus/en_us
p296
sVexpiry
p297
I1510516170
sVpath
p298
g12
sVhttponly
p299
I00
sVsecure
p300
I00
sa(dp301
Vdomain
p302
V.nike.com
p303
sVname
p304
VNIKE_COMMERCE_CCR
p305
sVexpires
p306
VTue, 16 Feb 2016 19:49:30 GMT
p307
sVvalue
p308
V1424116170181
p309
sVexpiry
p310
I1455652170
sVpath
p311
g12
sVhttponly
p312
I00
sVsecure
p313
I00
sa(dp314
Vdomain
p315
V.nike.com
p316
sVname
p317
VAnalysisUserId
p318
sVexpires
p319
VFri, 31 Dec 2038 23:59:59 GMT
p320
sVvalue
p321
V50.58.123.29.30801424116168539
p322
sVexpiry
p323
L2177452799L
sVpath
p324
g12
sVhttponly
p325
I00
sVsecure
p326
I00
sa.